; ModuleID = '31/584.c'
source_filename = "31/584.c"
target datalayout = "e-m:e-p270:32:32-p271:32:32-p272:64:64-i64:64-f80:128-n8:16:32:64-S128"
target triple = "x86_64-pc-linux-gnu"

%struct.Student = type { %struct.Student*, [20 x i8], [30 x i8], i8, i32, float, [30 x i8] }

@.str = private unnamed_addr constant [3 x i8] c"%s\00", align 1
@.str.1 = private unnamed_addr constant [4 x i8] c"end\00", align 1
@.str.2 = private unnamed_addr constant [5 x i8] c"%d%f\00", align 1
@.str.3 = private unnamed_addr constant [19 x i8] c"%s %s %c %d %g %s\0A\00", align 1

; Function Attrs: noinline nounwind uwtable
define dso_local %struct.Student* @creat() #0 {
  %1 = alloca %struct.Student*, align 8
  %2 = alloca %struct.Student*, align 8
  %3 = alloca %struct.Student*, align 8
  store %struct.Student* null, %struct.Student** %2, align 8
  br label %4

4:                                                ; preds = %40, %0
  %5 = load %struct.Student*, %struct.Student** %2, align 8
  store %struct.Student* %5, %struct.Student** %3, align 8
  %6 = call noalias i8* @malloc(i64 100) #4
  %7 = bitcast i8* %6 to %struct.Student*
  store %struct.Student* %7, %struct.Student** %2, align 8
  %8 = load %struct.Student*, %struct.Student** %3, align 8
  %9 = load %struct.Student*, %struct.Student** %2, align 8
  %10 = getelementptr inbounds %struct.Student, %struct.Student* %9, i32 0, i32 0
  store %struct.Student* %8, %struct.Student** %10, align 8
  %11 = load %struct.Student*, %struct.Student** %2, align 8
  %12 = getelementptr inbounds %struct.Student, %struct.Student* %11, i32 0, i32 1
  %13 = getelementptr inbounds [20 x i8], [20 x i8]* %12, i64 0, i64 0
  %14 = call i32 (i8*, ...) @__isoc99_scanf(i8* getelementptr inbounds ([3 x i8], [3 x i8]* @.str, i64 0, i64 0), i8* %13)
  %15 = load %struct.Student*, %struct.Student** %2, align 8
  %16 = getelementptr inbounds %struct.Student, %struct.Student* %15, i32 0, i32 1
  %17 = getelementptr inbounds [20 x i8], [20 x i8]* %16, i64 0, i64 0
  %18 = call i32 @strcmp(i8* %17, i8* getelementptr inbounds ([4 x i8], [4 x i8]* @.str.1, i64 0, i64 0)) #5
  %19 = icmp eq i32 %18, 0
  br i1 %19, label %20, label %21

20:                                               ; preds = %4
  br label %41

21:                                               ; preds = %4
  %22 = load %struct.Student*, %struct.Student** %2, align 8
  %23 = getelementptr inbounds %struct.Student, %struct.Student* %22, i32 0, i32 2
  %24 = getelementptr inbounds [30 x i8], [30 x i8]* %23, i64 0, i64 0
  %25 = call i32 (i8*, ...) @__isoc99_scanf(i8* getelementptr inbounds ([3 x i8], [3 x i8]* @.str, i64 0, i64 0), i8* %24)
  %26 = call i32 @getchar()
  %27 = call i32 @getchar()
  %28 = trunc i32 %27 to i8
  %29 = load %struct.Student*, %struct.Student** %2, align 8
  %30 = getelementptr inbounds %struct.Student, %struct.Student* %29, i32 0, i32 3
  store i8 %28, i8* %30, align 2
  %31 = load %struct.Student*, %struct.Student** %2, align 8
  %32 = getelementptr inbounds %struct.Student, %struct.Student* %31, i32 0, i32 4
  %33 = load %struct.Student*, %struct.Student** %2, align 8
  %34 = getelementptr inbounds %struct.Student, %struct.Student* %33, i32 0, i32 5
  %35 = call i32 (i8*, ...) @__isoc99_scanf(i8* getelementptr inbounds ([5 x i8], [5 x i8]* @.str.2, i64 0, i64 0), i32* %32, float* %34)
  %36 = load %struct.Student*, %struct.Student** %2, align 8
  %37 = getelementptr inbounds %struct.Student, %struct.Student* %36, i32 0, i32 6
  %38 = getelementptr inbounds [30 x i8], [30 x i8]* %37, i64 0, i64 0
  %39 = call i32 (i8*, ...) @__isoc99_scanf(i8* getelementptr inbounds ([3 x i8], [3 x i8]* @.str, i64 0, i64 0), i8* %38)
  br label %40

40:                                               ; preds = %21
  br label %4

41:                                               ; preds = %20
  %42 = load %struct.Student*, %struct.Student** %3, align 8
  store %struct.Student* %42, %struct.Student** %1, align 8
  %43 = load %struct.Student*, %struct.Student** %1, align 8
  ret %struct.Student* %43
}

; Function Attrs: nounwind
declare dso_local noalias i8* @malloc(i64) #1

declare dso_local i32 @__isoc99_scanf(i8*, ...) #2

; Function Attrs: nounwind readonly
declare dso_local i32 @strcmp(i8*, i8*) #3

declare dso_local i32 @getchar() #2

; Function Attrs: noinline nounwind uwtable
define dso_local void @print(%struct.Student* %0) #0 {
  %2 = alloca %struct.Student*, align 8
  %3 = alloca %struct.Student*, align 8
  store %struct.Student* %0, %struct.Student** %2, align 8
  %4 = load %struct.Student*, %struct.Student** %2, align 8
  store %struct.Student* %4, %struct.Student** %3, align 8
  br label %5

5:                                                ; preds = %30, %1
  %6 = load %struct.Student*, %struct.Student** %3, align 8
  %7 = getelementptr inbounds %struct.Student, %struct.Student* %6, i32 0, i32 1
  %8 = getelementptr inbounds [20 x i8], [20 x i8]* %7, i64 0, i64 0
  %9 = load %struct.Student*, %struct.Student** %3, align 8
  %10 = getelementptr inbounds %struct.Student, %struct.Student* %9, i32 0, i32 2
  %11 = getelementptr inbounds [30 x i8], [30 x i8]* %10, i64 0, i64 0
  %12 = load %struct.Student*, %struct.Student** %3, align 8
  %13 = getelementptr inbounds %struct.Student, %struct.Student* %12, i32 0, i32 3
  %14 = load i8, i8* %13, align 2
  %15 = sext i8 %14 to i32
  %16 = load %struct.Student*, %struct.Student** %3, align 8
  %17 = getelementptr inbounds %struct.Student, %struct.Student* %16, i32 0, i32 4
  %18 = load i32, i32* %17, align 4
  %19 = load %struct.Student*, %struct.Student** %3, align 8
  %20 = getelementptr inbounds %struct.Student, %struct.Student* %19, i32 0, i32 5
  %21 = load float, float* %20, align 8
  %22 = fpext float %21 to double
  %23 = load %struct.Student*, %struct.Student** %3, align 8
  %24 = getelementptr inbounds %struct.Student, %struct.Student* %23, i32 0, i32 6
  %25 = getelementptr inbounds [30 x i8], [30 x i8]* %24, i64 0, i64 0
  %26 = call i32 (i8*, ...) @printf(i8* getelementptr inbounds ([19 x i8], [19 x i8]* @.str.3, i64 0, i64 0), i8* %8, i8* %11, i32 %15, i32 %18, double %22, i8* %25)
  %27 = load %struct.Student*, %struct.Student** %3, align 8
  %28 = getelementptr inbounds %struct.Student, %struct.Student* %27, i32 0, i32 0
  %29 = load %struct.Student*, %struct.Student** %28, align 8
  store %struct.Student* %29, %struct.Student** %3, align 8
  br label %30

30:                                               ; preds = %5
  %31 = load %struct.Student*, %struct.Student** %3, align 8
  %32 = icmp ne %struct.Student* %31, null
  br i1 %32, label %5, label %33

33:                                               ; preds = %30
  ret void
}

declare dso_local i32 @printf(i8*, ...) #2

; Function Attrs: noinline nounwind uwtable
define dso_local void @main() #0 {
  %1 = alloca %struct.Student*, align 8
  %2 = call %struct.Student* @creat()
  store %struct.Student* %2, %struct.Student** %1, align 8
  %3 = load %struct.Student*, %struct.Student** %1, align 8
  call void @print(%struct.Student* %3)
  ret void
}


!llvm.module.flags = !{!0}
!llvm.ident = !{!1}

!0 = !{i32 1, !"wchar_size", i32 4}
!1 = !{!"clang version 10.0.0-4ubuntu1 "}
